target datalayout = "e-m:e-p270:32:32-p271:32:32-p272:64:64-i64:64-i128:128-f80:128-n8:16:32:64-S128"
target triple = "x86_64-pc-linux-gnu"

%struct.RangeTblEntry = type { i32, ptr, ptr, i32, i32, i8, i8, i32, i32, ptr, ptr, i8, i32, i32, ptr, ptr, ptr, ptr, ptr, i8, ptr, ptr, ptr, i32, i8, ptr, ptr, ptr, ptr, double, ptr, i8, i8, ptr }
%struct.FdwRoutine = type { i32, ptr, ptr, ptr, ptr, ptr, ptr, ptr, ptr, ptr, ptr, ptr, ptr, ptr, ptr, ptr, ptr, ptr, ptr, ptr, ptr, ptr, ptr, ptr, ptr, ptr, ptr, ptr, ptr, ptr, ptr, ptr, ptr, ptr, ptr, ptr, ptr, ptr, ptr, ptr, ptr, ptr, ptr, ptr, ptr, ptr }

@.str = private unnamed_addr constant [35 x i8] c"unrecognized LockClauseStrength %d\00", align 1
@.str.1 = private unnamed_addr constant [10 x i8] c"planner.c\00", align 1
@__func__.select_rowmark_type = private unnamed_addr constant [20 x i8] c"select_rowmark_type\00", align 1

; Function Attrs: nounwind uwtable
define dso_local i32 @select_rowmark_type(ptr noundef %0, i32 noundef %1) #0 {
  %3 = alloca i32, align 4
  %4 = alloca ptr, align 8
  %5 = alloca i32, align 4
  %6 = alloca ptr, align 8
  %7 = alloca i32, align 4
  store ptr %0, ptr %4, align 8
  store i32 %1, ptr %5, align 4
  %8 = load ptr, ptr %4, align 8
  %9 = getelementptr inbounds nuw %struct.RangeTblEntry, ptr %8, i32 0, i32 3
  %10 = load i32, ptr %9, align 8
  %11 = icmp ne i32 %10, 0
  br i1 %11, label %12, label %13

12:                                               ; preds = %2
  store i32 5, ptr %3, align 4
  br label %55

13:                                               ; preds = %2
  %14 = load ptr, ptr %4, align 8
  %15 = getelementptr inbounds nuw %struct.RangeTblEntry, ptr %14, i32 0, i32 6
  %16 = load i8, ptr %15, align 1
  %17 = sext i8 %16 to i32
  %18 = icmp eq i32 %17, 102
  br i1 %18, label %19, label %37

19:                                               ; preds = %13
  call void @llvm.lifetime.start.p0(i64 8, ptr %6) #8
  %20 = load ptr, ptr %4, align 8
  %21 = getelementptr inbounds nuw %struct.RangeTblEntry, ptr %20, i32 0, i32 4
  %22 = load i32, ptr %21, align 4
  %23 = call ptr @GetFdwRoutineByRelId(i32 noundef %22)
  store ptr %23, ptr %6, align 8
  %24 = load ptr, ptr %6, align 8
  %25 = getelementptr inbounds nuw %struct.FdwRoutine, ptr %24, i32 0, i32 26
  %26 = load ptr, ptr %25, align 8
  %27 = icmp ne ptr %26, null
  br i1 %27, label %28, label %35

28:                                               ; preds = %19
  %29 = load ptr, ptr %6, align 8
  %30 = getelementptr inbounds nuw %struct.FdwRoutine, ptr %29, i32 0, i32 26
  %31 = load ptr, ptr %30, align 8
  %32 = load ptr, ptr %4, align 8
  %33 = load i32, ptr %5, align 4
  %34 = call i32 %31(ptr noundef %32, i32 noundef %33)
  store i32 %34, ptr %3, align 4
  store i32 1, ptr %7, align 4
  br label %36

35:                                               ; preds = %19
  store i32 5, ptr %3, align 4
  store i32 1, ptr %7, align 4
  br label %36

36:                                               ; preds = %35, %28
  call void @llvm.lifetime.end.p0(i64 8, ptr %6) #8
  br label %55

37:                                               ; preds = %13
  %38 = load i32, ptr %5, align 4
  switch i32 %38, label %44 [
    i32 0, label %39
    i32 1, label %40
    i32 2, label %41
    i32 3, label %42
    i32 4, label %43
  ]

39:                                               ; preds = %37
  store i32 4, ptr %3, align 4
  br label %55

40:                                               ; preds = %37
  store i32 3, ptr %3, align 4
  br label %55

41:                                               ; preds = %37
  store i32 2, ptr %3, align 4
  br label %55

42:                                               ; preds = %37
  store i32 1, ptr %3, align 4
  br label %55

43:                                               ; preds = %37
  store i32 0, ptr %3, align 4
  br label %55

44:                                               ; preds = %37
  br label %45

45:                                               ; preds = %44
  br i1 true, label %46, label %48

46:                                               ; preds = %45
  %47 = call zeroext i1 @errstart_cold(i32 noundef 21, ptr noundef null) #9
  br i1 %47, label %50, label %53

48:                                               ; preds = %45
  %49 = call zeroext i1 @errstart(i32 noundef 21, ptr noundef null)
  br i1 %49, label %50, label %53

50:                                               ; preds = %48, %46
  %51 = load i32, ptr %5, align 4
  %52 = call i32 (ptr, ...) @errmsg_internal(ptr noundef @.str, i32 noundef %51)
  call void @errfinish(ptr noundef @.str.1, i32 noundef 2480, ptr noundef @__func__.select_rowmark_type)
  br label %53

53:                                               ; preds = %50, %48, %46
  unreachable

54:                                               ; No predecessors!
  store i32 0, ptr %3, align 4
  br label %55

55:                                               ; preds = %54, %43, %42, %41, %40, %39, %36, %12
  %56 = load i32, ptr %3, align 4
  ret i32 %56
}