; Function Attrs: nounwind uwtable
define dso_local i32 @select_rowmark_type(ptr noundef %0, i32 noundef %1) local_unnamed_addr #0 {
  %3 = getelementptr inbounds nuw i8, ptr %0, i64 24
  %4 = load i32, ptr %3, align 8
  %.not = icmp eq i32 %4, 0
  br i1 %.not, label %5, label %22

5:                                                ; preds = %2
  %6 = getelementptr inbounds nuw i8, ptr %0, i64 33
  %7 = load i8, ptr %6, align 1
  %8 = icmp eq i8 %7, 102
  br i1 %8, label %9, label %17

9:                                                ; preds = %5
  %10 = getelementptr inbounds nuw i8, ptr %0, i64 28
  %11 = load i32, ptr %10, align 4
  %12 = tail call ptr @GetFdwRoutineByRelId(i32 noundef %11) #12
  %13 = getelementptr inbounds nuw i8, ptr %12, i64 208
  %14 = load ptr, ptr %13, align 8
  %.not10 = icmp eq ptr %14, null
  br i1 %.not10, label %22, label %15

15:                                               ; preds = %9
  %16 = tail call i32 %14(ptr noundef nonnull %0, i32 noundef %1) #12
  br label %22

17:                                               ; preds = %5
  %18 = icmp ult i32 %1, 5
  br i1 %18, label %switch.lookup, label %19

19:                                               ; preds = %17
  %20 = tail call zeroext i1 @errstart_cold(i32 noundef 21, ptr noundef null) #13
  tail call void @llvm.assume(i1 %20)
  %21 = tail call i32 (ptr, ...) @errmsg_internal(ptr noundef nonnull @.str, i32 noundef %1) #12
  tail call void @errfinish(ptr noundef nonnull @.str.1, i32 noundef 2480, ptr noundef nonnull @__func__.select_rowmark_type) #12
  unreachable

switch.lookup:                                    ; preds = %17
  %switch.offset = sub nuw nsw i32 4, %1
  br label %22

22:                                               ; preds = %switch.lookup, %15, %9, %2
  %.0 = phi i32 [ 5, %2 ], [ %16, %15 ], [ 5, %9 ], [ %switch.offset, %switch.lookup ]
  ret i32 %.0
}